; Function Attrs: mustprogress null_pointer_is_valid sspstrong uwtable
define void @_ZN18FollowStreamDialog9filterOutEv(ptr noundef align 8 dereferenceable_or_null(452) %0) #2 align 2 {
  %2 = getelementptr inbounds nuw i8, ptr %0, i64 445
  %3 = load i8, ptr %2, align 1, !range !54, !noundef !55
  %4 = trunc nuw i8 %3 to i1
  br i1 %4, label %9, label %5

5:                                                ; preds = %1
  %6 = getelementptr inbounds nuw i8, ptr %0, i64 352
  %7 = getelementptr inbounds nuw i8, ptr %0, i64 376
  %8 = tail call noundef align 8 dereferenceable(24) ptr @_ZN7QStringaSERKS_(ptr noundef nonnull align 8 dereferenceable_or_null(24) %7, ptr noundef nonnull align 8 dereferenceable(24) %6) #29
  tail call void @_ZN18FollowStreamDialog5closeEv(ptr noundef align 8 dereferenceable_or_null(452) %0)
  br label %9

9:                                                ; preds = %1, %5
  ret void
}